target datalayout = "e-m:e-p270:32:32-p271:32:32-p272:64:64-i64:64-i128:128-f80:128-n8:16:32:64-S128"
target triple = "x86_64-pc-linux-gnu"

%struct.slurmd_config = type { ptr, ptr, i32, [4096 x i8], ptr, ptr, ptr, ptr, i16, i16, i16, i16, ptr, i16, i64, i16, i16, i16, i16, i16, i16, i16, i16, i16, i16, i16, i64, i64, i32, i32, i16, ptr, ptr, ptr, i32, ptr, ptr, ptr, ptr, ptr, ptr, ptr, ptr, ptr, ptr, i32, ptr, ptr, i16, i32, i32, %struct.log_options_t, i32, i16, i64, i8, i8, i8, i8, i8, %union.pthread_mutex_t, i16, ptr, %union.pthread_cond_t, ptr, %union.pthread_cond_t, i8, i8, ptr, ptr }
%struct.log_options_t = type { i32, i32, i32, i8, i8, i8, i32 }
%union.pthread_mutex_t = type { %struct.__pthread_mutex_s }
%struct.__pthread_mutex_s = type { i32, i32, i32, i32, i32, i16, i16, %struct.__pthread_internal_list }
%struct.__pthread_internal_list = type { ptr, ptr }
%union.pthread_cond_t = type { %struct.__pthread_cond_s }
%struct.__pthread_cond_s = type { %union.__atomic_wide_counter, %union.__atomic_wide_counter, [2 x i32], [2 x i32], i32, i32, [2 x i32] }
%union.__atomic_wide_counter = type { i64 }

@conf = dso_local global ptr null, align 8
@plugin_type = dso_local constant [22 x i8] c"node_features/helpers\00", align 16
@.str.32 = private unnamed_addr constant [44 x i8] c"%s: %s: skipping Feature for NodeName=%s %s\00", align 1
@__func__._parse_feature_node = private unnamed_addr constant [20 x i8] c"_parse_feature_node\00", align 1

; Function Attrs: nounwind uwtable
define internal i32 @_parse_feature_node(ptr noundef %0, i32 noundef %1, ptr noundef %2, ptr noundef %3, ptr noundef %4, ptr noundef %5) #0 {
  %7 = alloca i32, align 4
  %8 = alloca ptr, align 8
  %9 = alloca i32, align 4
  %10 = alloca ptr, align 8
  %11 = alloca ptr, align 8
  %12 = alloca ptr, align 8
  %13 = alloca ptr, align 8
  %14 = alloca ptr, align 8
  %15 = alloca i8, align 1
  %16 = alloca ptr, align 8
  %17 = alloca i32, align 4
  store ptr %0, ptr %8, align 8
  store i32 %1, ptr %9, align 4
  store ptr %2, ptr %10, align 8
  store ptr %3, ptr %11, align 8
  store ptr %4, ptr %12, align 8
  store ptr %5, ptr %13, align 8
  call void @llvm.lifetime.start.p0(i64 8, ptr %14) #8
  store ptr null, ptr %14, align 8
  %18 = call zeroext i1 @running_in_slurmctld()
  br i1 %18, label %68, label %19

19:                                               ; preds = %6
  %20 = load ptr, ptr @conf, align 8
  %21 = getelementptr inbounds nuw %struct.slurmd_config, ptr %20, i32 0, i32 35
  %22 = load ptr, ptr %21, align 8
  %23 = icmp ne ptr %22, null
  br i1 %23, label %24, label %68

24:                                               ; preds = %19
  %25 = load ptr, ptr %11, align 8
  %26 = icmp ne ptr %25, null
  br i1 %26, label %27, label %68

27:                                               ; preds = %24
  call void @llvm.lifetime.start.p0(i64 1, ptr %15) #8
  store i8 0, ptr %15, align 1
  call void @llvm.lifetime.start.p0(i64 8, ptr %16) #8
  %28 = load ptr, ptr %11, align 8
  %29 = call ptr @hostlist_create(ptr noundef %28)
  store ptr %29, ptr %16, align 8
  %30 = load ptr, ptr %16, align 8
  %31 = icmp ne ptr %30, null
  br i1 %31, label %32, label %41

32:                                               ; preds = %27
  %33 = load ptr, ptr %16, align 8
  %34 = load ptr, ptr @conf, align 8
  %35 = getelementptr inbounds nuw %struct.slurmd_config, ptr %34, i32 0, i32 35
  %36 = load ptr, ptr %35, align 8
  %37 = call i32 @hostlist_find(ptr noundef %33, ptr noundef %36)
  %38 = icmp sge i32 %37, 0
  %39 = zext i1 %38 to i8
  store i8 %39, ptr %15, align 1
  %40 = load ptr, ptr %16, align 8
  call void @hostlist_destroy(ptr noundef %40)
  br label %41

41:                                               ; preds = %32, %27
  %42 = load i8, ptr %15, align 1, !range !12, !noundef !13
  %43 = trunc i8 %42 to i1
  br i1 %43, label %64, label %44

44:                                               ; preds = %41
  br label %45

45:                                               ; preds = %44
  br label %46

46:                                               ; preds = %45
  %47 = call i32 @get_log_level()
  %48 = icmp sge i32 %47, 5
  br i1 %48, label %49, label %52

49:                                               ; preds = %46
  %50 = load ptr, ptr %11, align 8
  %51 = load ptr, ptr %12, align 8
  call void (i32, ptr, ...) @log_var(i32 noundef 5, ptr noundef @.str.32, ptr noundef @plugin_type, ptr noundef @__func__._parse_feature_node, ptr noundef %50, ptr noundef %51)
  br label %52

52:                                               ; preds = %49, %46
  br label %53

53:                                               ; preds = %52
  br label %54

54:                                               ; preds = %53
  br label %55

55:                                               ; preds = %54
  br label %56

56:                                               ; preds = %55
  %57 = call ptr @s_p_hashtbl_create(ptr noundef @feature_options)
  store ptr %57, ptr %14, align 8
  %58 = load ptr, ptr %14, align 8
  %59 = load ptr, ptr %13, align 8
  %60 = load ptr, ptr %59, align 8
  %61 = load ptr, ptr %13, align 8
  %62 = call i32 @s_p_parse_line(ptr noundef %58, ptr noundef %60, ptr noundef %61)
  %63 = load ptr, ptr %14, align 8
  call void @s_p_hashtbl_destroy(ptr noundef %63)
  store i32 0, ptr %7, align 4
  store i32 1, ptr %17, align 4
  br label %65

64:                                               ; preds = %41
  store i32 0, ptr %17, align 4
  br label %65

65:                                               ; preds = %64, %56
  call void @llvm.lifetime.end.p0(i64 8, ptr %16) #8
  call void @llvm.lifetime.end.p0(i64 1, ptr %15) #8
  %66 = load i32, ptr %17, align 4
  switch i32 %66, label %75 [
    i32 0, label %67
  ]

67:                                               ; preds = %65
  br label %68

68:                                               ; preds = %67, %24, %19, %6
  %69 = load ptr, ptr %8, align 8
  %70 = load i32, ptr %9, align 4
  %71 = load ptr, ptr %10, align 8
  %72 = load ptr, ptr %12, align 8
  %73 = load ptr, ptr %13, align 8
  %74 = call i32 @_parse_feature(ptr noundef %69, i32 noundef %70, ptr noundef %71, ptr noundef null, ptr noundef %72, ptr noundef %73)
  store i32 %74, ptr %7, align 4
  store i32 1, ptr %17, align 4
  br label %75

75:                                               ; preds = %68, %65
  call void @llvm.lifetime.end.p0(i64 8, ptr %14) #8
  %76 = load i32, ptr %7, align 4
  ret i32 %76
}