; Function Attrs: nounwind uwtable
define internal range(i32 -1, 2) i32 @_parse_feature_node(ptr noundef writeonly captures(none) %0, i32 %1, ptr readnone captures(none) %2, ptr noundef %3, ptr noundef %4, ptr noundef %5) #0 {
  %7 = tail call zeroext i1 @running_in_slurmctld() #10
  br i1 %7, label %.critedge, label %8

8:                                                ; preds = %6
  %9 = load ptr, ptr @conf, align 8
  %10 = getelementptr inbounds nuw i8, ptr %9, i64 4272
  %11 = load ptr, ptr %10, align 8
  %12 = icmp ne ptr %11, null
  %13 = icmp ne ptr %3, null
  %or.cond = and i1 %13, %12
  br i1 %or.cond, label %14, label %.critedge

14:                                               ; preds = %8
  %15 = tail call ptr @hostlist_create(ptr noundef nonnull %3) #10
  %.not = icmp eq ptr %15, null
  br i1 %.not, label %.thread, label %16

16:                                               ; preds = %14
  %17 = load ptr, ptr @conf, align 8
  %18 = getelementptr inbounds nuw i8, ptr %17, i64 4272
  %19 = load ptr, ptr %18, align 8
  %20 = tail call i32 @hostlist_find(ptr noundef nonnull %15, ptr noundef %19) #10
  %21 = icmp sgt i32 %20, -1
  tail call void @hostlist_destroy(ptr noundef nonnull %15) #10
  br i1 %21, label %.critedge, label %.thread

.thread:                                          ; preds = %14, %16
  %22 = tail call i32 @get_log_level() #10
  %23 = icmp sgt i32 %22, 4
  br i1 %23, label %24, label %25

24:                                               ; preds = %.thread
  tail call void (i32, ptr, ...) @log_var(i32 noundef 5, ptr noundef nonnull @.str.32, ptr noundef nonnull @plugin_type, ptr noundef nonnull @__func__._parse_feature_node, ptr noundef nonnull %3, ptr noundef %4) #10
  br label %25

25:                                               ; preds = %24, %.thread
  %26 = tail call ptr @s_p_hashtbl_create(ptr noundef nonnull @feature_options) #10
  %27 = load ptr, ptr %5, align 8
  %28 = tail call i32 @s_p_parse_line(ptr noundef %26, ptr noundef %27, ptr noundef nonnull %5) #10
  tail call void @s_p_hashtbl_destroy(ptr noundef %26) #10
  br label %30

.critedge:                                        ; preds = %16, %8, %6
  %29 = tail call i32 @_parse_feature(ptr noundef %0, i32 poison, ptr poison, ptr noundef null, ptr noundef %4, ptr noundef %5)
  br label %30

30:                                               ; preds = %25, %.critedge
  %.1 = phi i32 [ %29, %.critedge ], [ 0, %25 ]
  ret i32 %.1
}